target datalayout = "e-m:e-p270:32:32-p271:32:32-p272:64:64-i64:64-i128:128-f80:128-n8:16:32:64-S128"
target triple = "x86_64-pc-linux-gnu"

%"struct.llvm::DataLayout::PointerSpec" = type { i32, i32, %"struct.llvm::Align", %"struct.llvm::Align", i32 }
%"struct.llvm::Align" = type { i8 }

; Function Attrs: mustprogress nounwind uwtable
define linkonce_odr hidden noundef zeroext i1 @_ZN4llvmeqENS_5AlignES0_(i8 %0, i8 %1) #0 comdat {
  %3 = alloca %"struct.llvm::Align", align 1
  %4 = alloca %"struct.llvm::Align", align 1
  %5 = getelementptr inbounds nuw %"struct.llvm::Align", ptr %3, i32 0, i32 0
  store i8 %0, ptr %5, align 1
  %6 = getelementptr inbounds nuw %"struct.llvm::Align", ptr %4, i32 0, i32 0
  store i8 %1, ptr %6, align 1
  %7 = getelementptr inbounds nuw %"struct.llvm::Align", ptr %3, i32 0, i32 0
  %8 = load i8, ptr %7, align 1
  %9 = zext i8 %8 to i32
  %10 = getelementptr inbounds nuw %"struct.llvm::Align", ptr %4, i32 0, i32 0
  %11 = load i8, ptr %10, align 1
  %12 = zext i8 %11 to i32
  %13 = icmp eq i32 %9, %12
  ret i1 %13
}

; Function Attrs: mustprogress nounwind uwtable
define dso_local noundef zeroext i1 @_ZNK4llvm10DataLayout11PointerSpeceqERKS1_(ptr noundef nonnull align 4 dereferenceable(16) %0, ptr noundef nonnull align 4 dereferenceable(16) %1) #0 align 2 {
  %3 = alloca ptr, align 8
  %4 = alloca ptr, align 8
  %5 = alloca %"struct.llvm::Align", align 1
  %6 = alloca %"struct.llvm::Align", align 1
  %7 = alloca %"struct.llvm::Align", align 1
  %8 = alloca %"struct.llvm::Align", align 1
  store ptr %0, ptr %3, align 8
  store ptr %1, ptr %4, align 8
  %9 = load ptr, ptr %3, align 8
  %10 = getelementptr inbounds nuw %"struct.llvm::DataLayout::PointerSpec", ptr %9, i32 0, i32 0
  %11 = load i32, ptr %10, align 4
  %12 = load ptr, ptr %4, align 8
  %13 = getelementptr inbounds nuw %"struct.llvm::DataLayout::PointerSpec", ptr %12, i32 0, i32 0
  %14 = load i32, ptr %13, align 4
  %15 = icmp eq i32 %11, %14
  br i1 %15, label %16, label %48

16:                                               ; preds = %2
  %17 = getelementptr inbounds nuw %"struct.llvm::DataLayout::PointerSpec", ptr %9, i32 0, i32 1
  %18 = load i32, ptr %17, align 4
  %19 = load ptr, ptr %4, align 8
  %20 = getelementptr inbounds nuw %"struct.llvm::DataLayout::PointerSpec", ptr %19, i32 0, i32 1
  %21 = load i32, ptr %20, align 4
  %22 = icmp eq i32 %18, %21
  br i1 %22, label %23, label %48

23:                                               ; preds = %16
  %24 = getelementptr inbounds nuw %"struct.llvm::DataLayout::PointerSpec", ptr %9, i32 0, i32 2
  call void @llvm.memcpy.p0.p0.i64(ptr align 1 %5, ptr align 4 %24, i64 1, i1 false)
  %25 = load ptr, ptr %4, align 8
  %26 = getelementptr inbounds nuw %"struct.llvm::DataLayout::PointerSpec", ptr %25, i32 0, i32 2
  call void @llvm.memcpy.p0.p0.i64(ptr align 1 %6, ptr align 4 %26, i64 1, i1 false)
  %27 = getelementptr inbounds nuw %"struct.llvm::Align", ptr %5, i32 0, i32 0
  %28 = load i8, ptr %27, align 1
  %29 = getelementptr inbounds nuw %"struct.llvm::Align", ptr %6, i32 0, i32 0
  %30 = load i8, ptr %29, align 1
  %31 = call noundef zeroext i1 @_ZN4llvmeqENS_5AlignES0_(i8 %28, i8 %30)
  br i1 %31, label %32, label %48

32:                                               ; preds = %23
  %33 = getelementptr inbounds nuw %"struct.llvm::DataLayout::PointerSpec", ptr %9, i32 0, i32 3
  call void @llvm.memcpy.p0.p0.i64(ptr align 1 %7, ptr align 1 %33, i64 1, i1 false)
  %34 = load ptr, ptr %4, align 8
  %35 = getelementptr inbounds nuw %"struct.llvm::DataLayout::PointerSpec", ptr %34, i32 0, i32 3
  call void @llvm.memcpy.p0.p0.i64(ptr align 1 %8, ptr align 1 %35, i64 1, i1 false)
  %36 = getelementptr inbounds nuw %"struct.llvm::Align", ptr %7, i32 0, i32 0
  %37 = load i8, ptr %36, align 1
  %38 = getelementptr inbounds nuw %"struct.llvm::Align", ptr %8, i32 0, i32 0
  %39 = load i8, ptr %38, align 1
  %40 = call noundef zeroext i1 @_ZN4llvmeqENS_5AlignES0_(i8 %37, i8 %39)
  br i1 %40, label %41, label %48

41:                                               ; preds = %32
  %42 = getelementptr inbounds nuw %"struct.llvm::DataLayout::PointerSpec", ptr %9, i32 0, i32 4
  %43 = load i32, ptr %42, align 4
  %44 = load ptr, ptr %4, align 8
  %45 = getelementptr inbounds nuw %"struct.llvm::DataLayout::PointerSpec", ptr %44, i32 0, i32 4
  %46 = load i32, ptr %45, align 4
  %47 = icmp eq i32 %43, %46
  br label %48

48:                                               ; preds = %41, %32, %23, %16, %2
  %49 = phi i1 [ false, %32 ], [ false, %23 ], [ false, %16 ], [ false, %2 ], [ %47, %41 ]
  ret i1 %49
}