; Function Attrs: mustprogress nofree norecurse nosync nounwind willreturn memory(argmem: read) uwtable
define dso_local noundef zeroext i1 @_ZNK4llvm10DataLayout11PointerSpeceqERKS1_(ptr noundef nonnull readonly align 4 captures(none) dereferenceable(16) %0, ptr noundef nonnull readonly align 4 captures(none) dereferenceable(16) %1) local_unnamed_addr #3 align 2 {
  %3 = load i32, ptr %0, align 4
  %4 = load i32, ptr %1, align 4
  %5 = icmp eq i32 %3, %4
  br i1 %5, label %6, label %26

6:                                                ; preds = %2
  %7 = getelementptr inbounds nuw i8, ptr %0, i64 4
  %8 = load i32, ptr %7, align 4
  %9 = getelementptr inbounds nuw i8, ptr %1, i64 4
  %10 = load i32, ptr %9, align 4
  %11 = icmp eq i32 %8, %10
  br i1 %11, label %12, label %26

12:                                               ; preds = %6
  %13 = getelementptr inbounds nuw i8, ptr %0, i64 8
  %.sroa.03.0.copyload = load i8, ptr %13, align 4
  %14 = getelementptr inbounds nuw i8, ptr %1, i64 8
  %.sroa.02.0.copyload = load i8, ptr %14, align 4
  %15 = icmp eq i8 %.sroa.03.0.copyload, %.sroa.02.0.copyload
  br i1 %15, label %16, label %26

16:                                               ; preds = %12
  %17 = getelementptr inbounds nuw i8, ptr %0, i64 9
  %.sroa.01.0.copyload = load i8, ptr %17, align 1
  %18 = getelementptr inbounds nuw i8, ptr %1, i64 9
  %.sroa.0.0.copyload = load i8, ptr %18, align 1
  %19 = icmp eq i8 %.sroa.01.0.copyload, %.sroa.0.0.copyload
  br i1 %19, label %20, label %26

20:                                               ; preds = %16
  %21 = getelementptr inbounds nuw i8, ptr %0, i64 12
  %22 = load i32, ptr %21, align 4
  %23 = getelementptr inbounds nuw i8, ptr %1, i64 12
  %24 = load i32, ptr %23, align 4
  %25 = icmp eq i32 %22, %24
  br label %26

26:                                               ; preds = %20, %16, %12, %6, %2
  %27 = phi i1 [ false, %16 ], [ false, %12 ], [ false, %6 ], [ false, %2 ], [ %25, %20 ]
  ret i1 %27
}